target datalayout = "e-m:e-p270:32:32-p271:32:32-p272:64:64-i64:64-i128:128-f80:128-n8:16:32:64-S128"
target triple = "x86_64-pc-linux-gnu"

; Function Attrs: nounwind uwtable
define hidden i32 @SDL_CalculateGCD(i32 noundef %0, i32 noundef %1) #0 {
  %3 = alloca i32, align 4
  %4 = alloca i32, align 4
  %5 = alloca i32, align 4
  store i32 %0, ptr %4, align 4
  store i32 %1, ptr %5, align 4
  %6 = load i32, ptr %5, align 4
  %7 = icmp eq i32 %6, 0
  br i1 %7, label %8, label %10

8:                                                ; preds = %2
  %9 = load i32, ptr %4, align 4
  store i32 %9, ptr %3, align 4
  br label %16

10:                                               ; preds = %2
  %11 = load i32, ptr %5, align 4
  %12 = load i32, ptr %4, align 4
  %13 = load i32, ptr %5, align 4
  %14 = urem i32 %12, %13
  %15 = call i32 @SDL_CalculateGCD(i32 noundef %11, i32 noundef %14)
  store i32 %15, ptr %3, align 4
  br label %16

16:                                               ; preds = %10, %8
  %17 = load i32, ptr %3, align 4
  ret i32 %17
}