; Function Attrs: nofree norecurse nosync nounwind memory(none) uwtable
define hidden i32 @SDL_CalculateGCD(i32 noundef %0, i32 noundef %1) local_unnamed_addr #2 {
  %3 = icmp eq i32 %1, 0
  br i1 %3, label %tailrecurse._crit_edge, label %tailrecurse

tailrecurse:                                      ; preds = %2, %tailrecurse
  %.tr79 = phi i32 [ %4, %tailrecurse ], [ %1, %2 ]
  %.tr8 = phi i32 [ %.tr79, %tailrecurse ], [ %0, %2 ]
  %4 = urem i32 %.tr8, %.tr79
  %5 = icmp eq i32 %4, 0
  br i1 %5, label %tailrecurse._crit_edge, label %tailrecurse

tailrecurse._crit_edge:                           ; preds = %tailrecurse, %2
  %.tr.lcssa = phi i32 [ %0, %2 ], [ %.tr79, %tailrecurse ]
  ret i32 %.tr.lcssa
}